target datalayout = "e-m:e-p270:32:32-p271:32:32-p272:64:64-i64:64-i128:128-f80:128-n8:16:32:64-S128"
target triple = "x86_64-pc-linux-gnu"

@.str = private unnamed_addr constant [15 x i8] c"/proc/%lu/stat\00", align 1
@.str.1 = private unnamed_addr constant [4 x i8] c"%d \00", align 1

; Function Attrs: nounwind uwtable
define internal ptr @hwloc_checkat(ptr noundef %0, i32 noundef %1) #0 {
  %3 = alloca ptr, align 8
  %4 = alloca i32, align 4
  %5 = alloca ptr, align 8
  store ptr %0, ptr %3, align 8, !tbaa !3
  store i32 %1, ptr %4, align 4, !tbaa !10
  call void @llvm.lifetime.start.p0(i64 8, ptr %5) #14
  %6 = load ptr, ptr %3, align 8, !tbaa !3
  store ptr %6, ptr %5, align 8, !tbaa !3
  %7 = load i32, ptr %4, align 4, !tbaa !10
  %8 = icmp sge i32 %7, 0
  br i1 %8, label %9, label %20

9:                                                ; preds = %2
  br label %10

10:                                               ; preds = %16, %9
  %11 = load ptr, ptr %5, align 8, !tbaa !3
  %12 = load i8, ptr %11, align 1, !tbaa !54
  %13 = sext i8 %12 to i32
  %14 = icmp eq i32 %13, 47
  br i1 %14, label %15, label %19

15:                                               ; preds = %10
  br label %16

16:                                               ; preds = %15
  %17 = load ptr, ptr %5, align 8, !tbaa !3
  %18 = getelementptr inbounds nuw i8, ptr %17, i32 1
  store ptr %18, ptr %5, align 8, !tbaa !3
  br label %10, !llvm.loop !97

19:                                               ; preds = %10
  br label %20

20:                                               ; preds = %19, %2
  %21 = load ptr, ptr %5, align 8, !tbaa !3
  call void @llvm.lifetime.end.p0(i64 8, ptr %5) #14
  ret ptr %21
}

; Function Attrs: nounwind uwtable
define internal i32 @hwloc_openat(ptr noundef %0, i32 noundef %1) #0 {
  %3 = alloca i32, align 4
  %4 = alloca ptr, align 8
  %5 = alloca i32, align 4
  %6 = alloca ptr, align 8
  %7 = alloca i32, align 4
  store ptr %0, ptr %4, align 8, !tbaa !3
  store i32 %1, ptr %5, align 4, !tbaa !10
  call void @llvm.lifetime.start.p0(i64 8, ptr %6) #14
  %8 = load ptr, ptr %4, align 8, !tbaa !3
  %9 = load i32, ptr %5, align 4, !tbaa !10
  %10 = call ptr @hwloc_checkat(ptr noundef %8, i32 noundef %9)
  store ptr %10, ptr %6, align 8, !tbaa !3
  %11 = load ptr, ptr %6, align 8, !tbaa !3
  %12 = icmp ne ptr %11, null
  br i1 %12, label %14, label %13

13:                                               ; preds = %2
  store i32 -1, ptr %3, align 4
  store i32 1, ptr %7, align 4
  br label %18

14:                                               ; preds = %2
  %15 = load i32, ptr %5, align 4, !tbaa !10
  %16 = load ptr, ptr %6, align 8, !tbaa !3
  %17 = call i32 (i32, ptr, i32, ...) @openat(i32 noundef %15, ptr noundef %16, i32 noundef 0)
  store i32 %17, ptr %3, align 4
  store i32 1, ptr %7, align 4
  br label %18

18:                                               ; preds = %14, %13
  call void @llvm.lifetime.end.p0(i64 8, ptr %6) #14
  %19 = load i32, ptr %3, align 4
  ret i32 %19
}

; Function Attrs: inlinehint nounwind uwtable
define internal i32 @hwloc_open(ptr noundef %0, i32 noundef %1) #1 {
  %3 = alloca ptr, align 8
  %4 = alloca i32, align 4
  store ptr %0, ptr %3, align 8, !tbaa !3
  store i32 %1, ptr %4, align 4, !tbaa !10
  %5 = load ptr, ptr %3, align 8, !tbaa !3
  %6 = load i32, ptr %4, align 4, !tbaa !10
  %7 = call i32 @hwloc_openat(ptr noundef %5, i32 noundef %6)
  ret i32 %7
}

; Function Attrs: inlinehint nounwind uwtable
define internal i64 @hwloc_read_path_by_length(ptr noundef %0, ptr noundef %1, i64 noundef %2, i32 noundef %3) #1 {
  %5 = alloca i64, align 8
  %6 = alloca ptr, align 8
  %7 = alloca ptr, align 8
  %8 = alloca i64, align 8
  %9 = alloca i32, align 4
  %10 = alloca i32, align 4
  %11 = alloca i64, align 8
  %12 = alloca i32, align 4
  store ptr %0, ptr %6, align 8, !tbaa !3
  store ptr %1, ptr %7, align 8, !tbaa !3
  store i64 %2, ptr %8, align 8, !tbaa !12
  store i32 %3, ptr %9, align 4, !tbaa !10
  call void @llvm.lifetime.start.p0(i64 4, ptr %10) #14
  call void @llvm.lifetime.start.p0(i64 8, ptr %11) #14
  %13 = load ptr, ptr %6, align 8, !tbaa !3
  %14 = load i32, ptr %9, align 4, !tbaa !10
  %15 = call i32 @hwloc_open(ptr noundef %13, i32 noundef %14)
  store i32 %15, ptr %10, align 4, !tbaa !10
  %16 = load i32, ptr %10, align 4, !tbaa !10
  %17 = icmp slt i32 %16, 0
  br i1 %17, label %18, label %19

18:                                               ; preds = %4
  store i64 -1, ptr %5, align 8
  store i32 1, ptr %12, align 4
  br label %35

19:                                               ; preds = %4
  %20 = load i32, ptr %10, align 4, !tbaa !10
  %21 = load ptr, ptr %7, align 8, !tbaa !3
  %22 = load i64, ptr %8, align 8, !tbaa !12
  %23 = sub i64 %22, 1
  %24 = call i64 @read(i32 noundef %20, ptr noundef %21, i64 noundef %23)
  store i64 %24, ptr %11, align 8, !tbaa !12
  %25 = load i32, ptr %10, align 4, !tbaa !10
  %26 = call i32 @close(i32 noundef %25)
  %27 = load i64, ptr %11, align 8, !tbaa !12
  %28 = icmp sle i64 %27, 0
  br i1 %28, label %29, label %30

29:                                               ; preds = %19
  store i64 -1, ptr %5, align 8
  store i32 1, ptr %12, align 4
  br label %35

30:                                               ; preds = %19
  %31 = load ptr, ptr %7, align 8, !tbaa !3
  %32 = load i64, ptr %11, align 8, !tbaa !12
  %33 = getelementptr inbounds i8, ptr %31, i64 %32
  store i8 0, ptr %33, align 1, !tbaa !54
  %34 = load i64, ptr %11, align 8, !tbaa !12
  store i64 %34, ptr %5, align 8
  store i32 1, ptr %12, align 4
  br label %35

35:                                               ; preds = %30, %29, %18
  call void @llvm.lifetime.end.p0(i64 8, ptr %11) #14
  call void @llvm.lifetime.end.p0(i64 4, ptr %10) #14
  %36 = load i64, ptr %5, align 8
  ret i64 %36
}

; Function Attrs: nounwind uwtable
define i32 @hwloc_linux_get_tid_last_cpu_location(ptr noundef %0, i32 noundef %1, ptr noundef %2) #0 {
  %4 = alloca i32, align 4
  %5 = alloca ptr, align 8
  %6 = alloca i32, align 4
  %7 = alloca ptr, align 8
  %8 = alloca [1024 x i8], align 16
  %9 = alloca [64 x i8], align 16
  %10 = alloca ptr, align 8
  %11 = alloca i32, align 4
  %12 = alloca i32, align 4
  %13 = alloca i32, align 4
  store ptr %0, ptr %5, align 8, !tbaa !19
  store i32 %1, ptr %6, align 4, !tbaa !10
  store ptr %2, ptr %7, align 8, !tbaa !8
  call void @llvm.lifetime.start.p0(i64 1024, ptr %8) #14
  call void @llvm.memset.p0.i64(ptr align 16 %8, i8 0, i64 1024, i1 false)
  call void @llvm.lifetime.start.p0(i64 64, ptr %9) #14
  call void @llvm.lifetime.start.p0(i64 8, ptr %10) #14
  call void @llvm.lifetime.start.p0(i64 4, ptr %11) #14
  call void @llvm.lifetime.start.p0(i64 4, ptr %12) #14
  %14 = load i32, ptr %6, align 4, !tbaa !10
  %15 = icmp ne i32 %14, 0
  br i1 %15, label %19, label %16

16:                                               ; preds = %3
  %17 = call i64 (i64, ...) @syscall(i64 noundef 186) #14
  %18 = trunc i64 %17 to i32
  store i32 %18, ptr %6, align 4, !tbaa !10
  br label %19

19:                                               ; preds = %16, %3
  %20 = getelementptr inbounds [64 x i8], ptr %9, i64 0, i64 0
  %21 = load i32, ptr %6, align 4, !tbaa !10
  %22 = sext i32 %21 to i64
  %23 = call i32 (ptr, i64, ptr, ...) @snprintf(ptr noundef %20, i64 noundef 64, ptr noundef @.str, i64 noundef %22) #14
  %24 = getelementptr inbounds [64 x i8], ptr %9, i64 0, i64 0
  %25 = getelementptr inbounds [1024 x i8], ptr %8, i64 0, i64 0
  %26 = call i64 @hwloc_read_path_by_length(ptr noundef %24, ptr noundef %25, i64 noundef 1024, i32 noundef -1)
  %27 = trunc i64 %26 to i32
  store i32 %27, ptr %12, align 4, !tbaa !10
  %28 = load i32, ptr %12, align 4, !tbaa !10
  %29 = icmp sle i32 %28, 0
  br i1 %29, label %30, label %32

30:                                               ; preds = %19
  %31 = call ptr @__errno_location() #18
  store i32 38, ptr %31, align 4, !tbaa !10
  store i32 -1, ptr %4, align 4
  store i32 1, ptr %13, align 4
  br label %68

32:                                               ; preds = %19
  %33 = getelementptr inbounds [1024 x i8], ptr %8, i64 0, i64 0
  %34 = call ptr @strrchr(ptr noundef %33, i32 noundef 41) #17
  store ptr %34, ptr %10, align 8, !tbaa !3
  %35 = load ptr, ptr %10, align 8, !tbaa !3
  %36 = icmp ne ptr %35, null
  br i1 %36, label %39, label %37

37:                                               ; preds = %32
  %38 = call ptr @__errno_location() #18
  store i32 38, ptr %38, align 4, !tbaa !10
  store i32 -1, ptr %4, align 4
  store i32 1, ptr %13, align 4
  br label %68

39:                                               ; preds = %32
  %40 = load ptr, ptr %10, align 8, !tbaa !3
  %41 = getelementptr inbounds i8, ptr %40, i64 2
  store ptr %41, ptr %10, align 8, !tbaa !3
  store i32 0, ptr %11, align 4, !tbaa !10
  br label %42

42:                                               ; preds = %55, %39
  %43 = load i32, ptr %11, align 4, !tbaa !10
  %44 = icmp slt i32 %43, 36
  br i1 %44, label %45, label %58

45:                                               ; preds = %42
  %46 = load ptr, ptr %10, align 8, !tbaa !3
  %47 = call ptr @strchr(ptr noundef %46, i32 noundef 32) #17
  store ptr %47, ptr %10, align 8, !tbaa !3
  %48 = load ptr, ptr %10, align 8, !tbaa !3
  %49 = icmp ne ptr %48, null
  br i1 %49, label %52, label %50

50:                                               ; preds = %45
  %51 = call ptr @__errno_location() #18
  store i32 38, ptr %51, align 4, !tbaa !10
  store i32 -1, ptr %4, align 4
  store i32 1, ptr %13, align 4
  br label %68

52:                                               ; preds = %45
  %53 = load ptr, ptr %10, align 8, !tbaa !3
  %54 = getelementptr inbounds nuw i8, ptr %53, i32 1
  store ptr %54, ptr %10, align 8, !tbaa !3
  br label %55

55:                                               ; preds = %52
  %56 = load i32, ptr %11, align 4, !tbaa !10
  %57 = add nsw i32 %56, 1
  store i32 %57, ptr %11, align 4, !tbaa !10
  br label %42, !llvm.loop !53

58:                                               ; preds = %42
  %59 = load ptr, ptr %10, align 8, !tbaa !3
  %60 = call i32 (ptr, ptr, ...) @__isoc99_sscanf(ptr noundef %59, ptr noundef @.str.1, ptr noundef %11) #14
  %61 = icmp ne i32 %60, 1
  br i1 %61, label %62, label %64

62:                                               ; preds = %58
  %63 = call ptr @__errno_location() #18
  store i32 38, ptr %63, align 4, !tbaa !10
  store i32 -1, ptr %4, align 4
  store i32 1, ptr %13, align 4
  br label %68

64:                                               ; preds = %58
  %65 = load ptr, ptr %7, align 8, !tbaa !8
  %66 = load i32, ptr %11, align 4, !tbaa !10
  %67 = call i32 @hwloc_bitmap_only(ptr noundef %65, i32 noundef %66)
  store i32 0, ptr %4, align 4
  store i32 1, ptr %13, align 4
  br label %68

68:                                               ; preds = %64, %62, %50, %37, %30
  call void @llvm.lifetime.end.p0(i64 4, ptr %12) #14
  call void @llvm.lifetime.end.p0(i64 4, ptr %11) #14
  call void @llvm.lifetime.end.p0(i64 8, ptr %10) #14
  call void @llvm.lifetime.end.p0(i64 64, ptr %9) #14
  call void @llvm.lifetime.end.p0(i64 1024, ptr %8) #14
  %69 = load i32, ptr %4, align 4
  ret i32 %69
}