; Function Attrs: nounwind uwtable
define range(i32 -1, 1) i32 @hwloc_linux_get_tid_last_cpu_location(ptr readnone captures(none) %0, i32 noundef %1, ptr noundef %2) local_unnamed_addr #0 {
  %4 = alloca [1024 x i8], align 16
  %5 = alloca [64 x i8], align 16
  %6 = alloca i32, align 4
  call void @llvm.lifetime.start.p0(i64 1024, ptr nonnull %4) #27
  call void @llvm.memset.p0.i64(ptr noundef nonnull align 16 dereferenceable(1024) %4, i8 0, i64 1024, i1 false)
  call void @llvm.lifetime.start.p0(i64 64, ptr nonnull %5) #27
  call void @llvm.lifetime.start.p0(i64 4, ptr nonnull %6) #27
  %.not = icmp eq i32 %1, 0
  br i1 %.not, label %7, label %10

7:                                                ; preds = %3
  %8 = tail call i64 (i64, ...) @syscall(i64 noundef 186) #27
  %9 = trunc i64 %8 to i32
  br label %10

10:                                               ; preds = %7, %3
  %.011 = phi i32 [ %1, %3 ], [ %9, %7 ]
  %11 = sext i32 %.011 to i64
  %12 = call i32 (ptr, i64, ptr, ...) @snprintf(ptr noundef nonnull dereferenceable(1) %5, i64 noundef 64, ptr noundef nonnull @.str, i64 noundef %11) #27
  %13 = call i32 (i32, ptr, i32, ...) @openat(i32 noundef -1, ptr noundef nonnull %5, i32 noundef 0) #27
  %14 = icmp slt i32 %13, 0
  br i1 %14, label %hwloc_read_path_by_length.exit.thread, label %15

15:                                               ; preds = %10
  %16 = call i64 @read(i32 noundef %13, ptr noundef nonnull %4, i64 noundef 1023) #27
  %17 = call i32 @close(i32 noundef %13) #27
  %18 = icmp slt i64 %16, 1
  br i1 %18, label %hwloc_read_path_by_length.exit.thread, label %hwloc_read_path_by_length.exit

hwloc_read_path_by_length.exit:                   ; preds = %15
  %19 = getelementptr inbounds nuw i8, ptr %4, i64 %16
  store i8 0, ptr %19, align 1, !tbaa !7
  %20 = trunc i64 %16 to i32
  %21 = icmp slt i32 %20, 1
  br i1 %21, label %hwloc_read_path_by_length.exit.thread, label %23

hwloc_read_path_by_length.exit.thread:            ; preds = %15, %10, %hwloc_read_path_by_length.exit
  %22 = tail call ptr @__errno_location() #31
  store i32 38, ptr %22, align 4, !tbaa !3
  br label %43

23:                                               ; preds = %hwloc_read_path_by_length.exit
  %24 = call ptr @strrchr(ptr noundef nonnull dereferenceable(1) %4, i32 noundef 41) #30
  %.not16 = icmp eq ptr %24, null
  br i1 %.not16, label %25, label %27

25:                                               ; preds = %23
  %26 = tail call ptr @__errno_location() #31
  store i32 38, ptr %26, align 4, !tbaa !3
  br label %43

27:                                               ; preds = %23
  %28 = getelementptr inbounds nuw i8, ptr %24, i64 2
  br label %29

29:                                               ; preds = %27, %33
  %.01022 = phi ptr [ %28, %27 ], [ %34, %33 ]
  %storemerge21 = phi i32 [ 0, %27 ], [ %35, %33 ]
  %30 = call ptr @strchr(ptr noundef nonnull dereferenceable(1) %.01022, i32 noundef 32) #30
  %.not18 = icmp eq ptr %30, null
  br i1 %.not18, label %31, label %33

31:                                               ; preds = %29
  %32 = tail call ptr @__errno_location() #31
  store i32 38, ptr %32, align 4, !tbaa !3
  br label %43

33:                                               ; preds = %29
  %34 = getelementptr inbounds nuw i8, ptr %30, i64 1
  %35 = add nuw nsw i32 %storemerge21, 1
  store i32 %35, ptr %6, align 4, !tbaa !3
  %exitcond.not = icmp eq i32 %35, 36
  br i1 %exitcond.not, label %36, label %29, !llvm.loop !49

36:                                               ; preds = %33
  %37 = call i32 (ptr, ptr, ...) @__isoc99_sscanf(ptr noundef nonnull %34, ptr noundef nonnull @.str.1, ptr noundef nonnull %6) #27
  %.not17 = icmp eq i32 %37, 1
  br i1 %.not17, label %40, label %38

38:                                               ; preds = %36
  %39 = tail call ptr @__errno_location() #31
  store i32 38, ptr %39, align 4, !tbaa !3
  br label %43

40:                                               ; preds = %36
  %41 = load i32, ptr %6, align 4, !tbaa !3
  %42 = call i32 @hwloc_bitmap_only(ptr noundef %2, i32 noundef %41) #27
  br label %43

43:                                               ; preds = %40, %38, %31, %25, %hwloc_read_path_by_length.exit.thread
  %.0 = phi i32 [ -1, %hwloc_read_path_by_length.exit.thread ], [ -1, %31 ], [ -1, %38 ], [ 0, %40 ], [ -1, %25 ]
  call void @llvm.lifetime.end.p0(i64 4, ptr nonnull %6) #27
  call void @llvm.lifetime.end.p0(i64 64, ptr nonnull %5) #27
  call void @llvm.lifetime.end.p0(i64 1024, ptr nonnull %4) #27
  ret i32 %.0
}